target datalayout = "e-m:e-p270:32:32-p271:32:32-p272:64:64-i64:64-i128:128-f80:128-n8:16:32:64-S128"
target triple = "x86_64-pc-linux-gnu"

@.str.1 = private unnamed_addr constant [13 x i8] c"script_lua.c\00", align 1
@.str.39 = private unnamed_addr constant [26 x i8] c"ignore_error_stats_update\00", align 1
@.str.105 = private unnamed_addr constant [52 x i8] c"lua stack limit reach when parsing redis.call reply\00", align 1
@.str.106 = private unnamed_addr constant [2 x i8] c"-\00", align 1

; Function Attrs: nounwind uwtable
define internal void @redisProtocolToLuaType_Error(ptr noundef %0, ptr noundef %1, i64 noundef %2, ptr noundef %3, i64 noundef %4) #0 {
  %6 = alloca ptr, align 8
  %7 = alloca ptr, align 8
  %8 = alloca i64, align 8
  %9 = alloca ptr, align 8
  %10 = alloca i64, align 8
  %11 = alloca ptr, align 8
  %12 = alloca ptr, align 8
  store ptr %0, ptr %6, align 8, !tbaa !12
  store ptr %1, ptr %7, align 8, !tbaa !10
  store i64 %2, ptr %8, align 8, !tbaa !23
  store ptr %3, ptr %9, align 8, !tbaa !10
  store i64 %4, ptr %10, align 8, !tbaa !23
  %13 = load ptr, ptr %6, align 8, !tbaa !12
  %14 = icmp ne ptr %13, null
  br i1 %14, label %16, label %15

15:                                               ; preds = %5
  br label %32

16:                                               ; preds = %5
  call void @llvm.lifetime.start.p0(i64 8, ptr %11) #12
  %17 = load ptr, ptr %6, align 8, !tbaa !12
  store ptr %17, ptr %11, align 8, !tbaa !5
  %18 = load ptr, ptr %11, align 8, !tbaa !5
  %19 = call i32 @lua_checkstack(ptr noundef %18, i32 noundef 3)
  %20 = icmp ne i32 %19, 0
  br i1 %20, label %22, label %21

21:                                               ; preds = %16
  call void (ptr, i32, ptr, ...) @_serverPanic(ptr noundef @.str.1, i32 noundef 312, ptr noundef @.str.105)
  call void @abort() #11
  unreachable

22:                                               ; preds = %16
  call void @llvm.lifetime.start.p0(i64 8, ptr %12) #12
  %23 = call ptr @sdsnew(ptr noundef @.str.106)
  %24 = load ptr, ptr %7, align 8, !tbaa !10
  %25 = load i64, ptr %8, align 8, !tbaa !23
  %26 = call ptr @sdscatlen(ptr noundef %23, ptr noundef %24, i64 noundef %25)
  store ptr %26, ptr %12, align 8, !tbaa !10
  %27 = load ptr, ptr %11, align 8, !tbaa !5
  %28 = load ptr, ptr %12, align 8, !tbaa !10
  call void @luaPushErrorBuff(ptr noundef %27, ptr noundef %28)
  %29 = load ptr, ptr %11, align 8, !tbaa !5
  call void @lua_pushstring(ptr noundef %29, ptr noundef @.str.39)
  %30 = load ptr, ptr %11, align 8, !tbaa !5
  call void @lua_pushboolean(ptr noundef %30, i32 noundef 1)
  %31 = load ptr, ptr %11, align 8, !tbaa !5
  call void @lua_settable(ptr noundef %31, i32 noundef -3)
  call void @llvm.lifetime.end.p0(i64 8, ptr %12) #12
  call void @llvm.lifetime.end.p0(i64 8, ptr %11) #12
  br label %32

32:                                               ; preds = %22, %15
  ret void
}